; Function Attrs: nounwind uwtable
define noalias nonnull ptr @l_Lean_ShareCommon_objectFactory___lambda__1(ptr readnone captures(none) %0, ptr readnone captures(none) %1, ptr readnone captures(none) %2, ptr readnone captures(none) %3, ptr noundef %4) local_unnamed_addr #0 {
  %6 = ptrtoint ptr %4 to i64
  %7 = and i64 %6, 1
  %.not = icmp eq i64 %7, 0
  br i1 %.not, label %.critedge.i, label %8, !prof !4

8:                                                ; preds = %5
  %9 = lshr i64 %6, 1
  %10 = icmp ult ptr %4, inttoptr (i64 2 to ptr)
  br i1 %10, label %lean_nat_mul.exit, label %11

11:                                               ; preds = %8
  %12 = and i64 %6, 4611686018427387904
  %13 = icmp ne i64 %12, 0
  %mul.ov.i = icmp slt ptr %4, null
  %or.cond = or i1 %mul.ov.i, %13
  br i1 %or.cond, label %18, label %14

14:                                               ; preds = %11
  %15 = shl nuw i64 %9, 3
  %16 = or disjoint i64 %15, 1
  %17 = inttoptr i64 %16 to ptr
  br label %lean_nat_mul.exit

18:                                               ; preds = %11
  %19 = tail call ptr @lean_nat_overflow_mul(i64 noundef %9, i64 noundef 4) #4
  br label %lean_nat_mul.exit

.critedge.i:                                      ; preds = %5
  %20 = tail call ptr @lean_nat_big_mul(ptr noundef %4, ptr noundef nonnull inttoptr (i64 9 to ptr)) #4
  br label %lean_nat_mul.exit

lean_nat_mul.exit:                                ; preds = %8, %14, %18, %.critedge.i
  %.2.i = phi ptr [ %20, %.critedge.i ], [ %4, %8 ], [ %17, %14 ], [ %19, %18 ]
  %21 = ptrtoint ptr %.2.i to i64
  %22 = and i64 %21, 1
  %.not.i18 = icmp eq i64 %22, 0
  br i1 %.not.i18, label %27, label %lean_nat_div.exit.thread, !prof !4

lean_nat_div.exit.thread:                         ; preds = %lean_nat_mul.exit
  %23 = udiv i64 %21, 6
  %24 = shl nuw nsw i64 %23, 1
  %25 = or disjoint i64 %24, 1
  %26 = inttoptr i64 %25 to ptr
  br label %lean_dec.exit

27:                                               ; preds = %lean_nat_mul.exit
  %28 = tail call ptr @lean_nat_big_div(ptr noundef %.2.i, ptr noundef nonnull inttoptr (i64 7 to ptr)) #4
  %29 = load i32, ptr %.2.i, align 4, !tbaa !5
  %30 = icmp sgt i32 %29, 1
  br i1 %30, label %31, label %33, !prof !10

31:                                               ; preds = %27
  %32 = add nsw i32 %29, -1
  store i32 %32, ptr %.2.i, align 4, !tbaa !5
  br label %lean_dec.exit

33:                                               ; preds = %27
  %.not.i16 = icmp eq i32 %29, 0
  br i1 %.not.i16, label %lean_dec.exit, label %34

34:                                               ; preds = %33
  tail call void @lean_dec_ref_cold(ptr noundef nonnull %.2.i) #4
  br label %lean_dec.exit

lean_dec.exit:                                    ; preds = %34, %33, %31, %lean_nat_div.exit.thread
  %.1.i21 = phi ptr [ %26, %lean_nat_div.exit.thread ], [ %28, %31 ], [ %28, %33 ], [ %28, %34 ]
  %35 = tail call ptr @l_Nat_nextPowerOfTwo_go(ptr noundef %.1.i21, ptr noundef nonnull inttoptr (i64 3 to ptr), ptr noundef nonnull inttoptr (i64 1 to ptr)) #4
  %36 = ptrtoint ptr %.1.i21 to i64
  %37 = and i64 %36, 1
  %.not22 = icmp eq i64 %37, 0
  br i1 %.not22, label %38, label %lean_dec.exit15

38:                                               ; preds = %lean_dec.exit
  %39 = load i32, ptr %.1.i21, align 4, !tbaa !5
  %40 = icmp sgt i32 %39, 1
  br i1 %40, label %41, label %43, !prof !10

41:                                               ; preds = %38
  %42 = add nsw i32 %39, -1
  store i32 %42, ptr %.1.i21, align 4, !tbaa !5
  br label %lean_dec.exit15

43:                                               ; preds = %38
  %.not.i = icmp eq i32 %39, 0
  br i1 %.not.i, label %lean_dec.exit15, label %44

44:                                               ; preds = %43
  tail call void @lean_dec_ref_cold(ptr noundef nonnull %.1.i21) #4
  br label %lean_dec.exit15

lean_dec.exit15:                                  ; preds = %44, %43, %41, %lean_dec.exit
  %45 = tail call ptr @lean_mk_array(ptr noundef %35, ptr noundef nonnull inttoptr (i64 1 to ptr)) #4
  tail call void @lean_inc_heartbeat() #4
  %46 = tail call noalias ptr @mi_malloc_small(i64 noundef 24) #4
  %47 = icmp eq ptr %46, null
  br i1 %47, label %48, label %lean_alloc_ctor.exit

48:                                               ; preds = %lean_dec.exit15
  tail call void @lean_internal_panic_out_of_memory() #5
  unreachable

lean_alloc_ctor.exit:                             ; preds = %lean_dec.exit15
  %49 = getelementptr inbounds nuw i8, ptr %46, i64 4
  store i32 1, ptr %46, align 4, !tbaa !5
  store i32 131096, ptr %49, align 4
  %50 = getelementptr inbounds nuw i8, ptr %46, i64 8
  store ptr inttoptr (i64 1 to ptr), ptr %50, align 8, !tbaa !11
  %51 = getelementptr inbounds nuw i8, ptr %46, i64 16
  store ptr %45, ptr %51, align 8, !tbaa !11
  ret ptr %46
}